(dp0
S'image_prefix'
p1
S'SER-X49_Pn1_1'
p2
sS'dist'
p3
S'800.00'
p4
sS'width'
p5
S'0.50'
p6
sS'energy'
p7
S'12398.41'
p8
sS'helical'
p9
S'No'
p10
sS'Nframes'
p11
S'10.00'
p12
sS'start'
p13
S'50.00'
p14
sS'first_image'
p15
S'1.00'
p16
sS'time'
p17
S'0.50'
p18
sS'beamline'
p19
S'22BM'
p20
sS'directory'
p21
S'/data/BM_jchrzas_april.raw'
p22
sS'beamsize'
p23
S'10'
p24
sS'trans'
p25
V100.000
p26
sS'date'
p27
S'2016_4_5'
p28
s.